; ModuleID = '10/2261.c'
source_filename = "10/2261.c"
target datalayout = "e-m:e-p270:32:32-p271:32:32-p272:64:64-i64:64-f80:128-n8:16:32:64-S128"
target triple = "x86_64-pc-linux-gnu"

@.str = private unnamed_addr constant [4 x i8] c"%d\0A\00", align 1
@.str.1 = private unnamed_addr constant [3 x i8] c"%d\00", align 1

; Function Attrs: noinline nounwind uwtable
define dso_local i32 @max(i32* %0, i32 %1) #0 {
  %3 = alloca i32*, align 8
  %4 = alloca i32, align 4
  %5 = alloca i32, align 4
  %6 = alloca i32, align 4
  %7 = alloca i32, align 4
  %8 = alloca i32, align 4
  %9 = alloca i32, align 4
  %10 = alloca i32, align 4
  %11 = alloca [25 x i32], align 16
  store i32* %0, i32** %3, align 8
  store i32 %1, i32* %4, align 4
  %12 = load i32, i32* %4, align 4
  %13 = icmp eq i32 %12, 1
  br i1 %13, label %14, label %15

14:                                               ; preds = %2
  store i32 1, i32* %5, align 4
  br label %75

15:                                               ; preds = %2
  %16 = load i32, i32* %4, align 4
  %17 = icmp eq i32 %16, 0
  br i1 %17, label %18, label %19

18:                                               ; preds = %15
  store i32 0, i32* %5, align 4
  br label %74

19:                                               ; preds = %15
  store i32 0, i32* %6, align 4
  store i32 0, i32* %10, align 4
  br label %20

20:                                               ; preds = %69, %19
  %21 = load i32, i32* %6, align 4
  %22 = load i32, i32* %4, align 4
  %23 = icmp slt i32 %21, %22
  br i1 %23, label %24, label %72

24:                                               ; preds = %20
  %25 = load i32, i32* %6, align 4
  %26 = add nsw i32 %25, 1
  store i32 %26, i32* %7, align 4
  store i32 0, i32* %8, align 4
  br label %27

27:                                               ; preds = %55, %24
  %28 = load i32, i32* %7, align 4
  %29 = load i32, i32* %4, align 4
  %30 = icmp slt i32 %28, %29
  br i1 %30, label %31, label %58

31:                                               ; preds = %27
  %32 = load i32*, i32** %3, align 8
  %33 = load i32, i32* %7, align 4
  %34 = sext i32 %33 to i64
  %35 = getelementptr inbounds i32, i32* %32, i64 %34
  %36 = load i32, i32* %35, align 4
  %37 = load i32*, i32** %3, align 8
  %38 = load i32, i32* %6, align 4
  %39 = sext i32 %38 to i64
  %40 = getelementptr inbounds i32, i32* %37, i64 %39
  %41 = load i32, i32* %40, align 4
  %42 = icmp sle i32 %36, %41
  br i1 %42, label %43, label %54

43:                                               ; preds = %31
  %44 = load i32*, i32** %3, align 8
  %45 = load i32, i32* %7, align 4
  %46 = sext i32 %45 to i64
  %47 = getelementptr inbounds i32, i32* %44, i64 %46
  %48 = load i32, i32* %47, align 4
  %49 = load i32, i32* %8, align 4
  %50 = sext i32 %49 to i64
  %51 = getelementptr inbounds [25 x i32], [25 x i32]* %11, i64 0, i64 %50
  store i32 %48, i32* %51, align 4
  %52 = load i32, i32* %8, align 4
  %53 = add nsw i32 %52, 1
  store i32 %53, i32* %8, align 4
  br label %54

54:                                               ; preds = %43, %31
  br label %55

55:                                               ; preds = %54
  %56 = load i32, i32* %7, align 4
  %57 = add nsw i32 %56, 1
  store i32 %57, i32* %7, align 4
  br label %27

58:                                               ; preds = %27
  %59 = getelementptr inbounds [25 x i32], [25 x i32]* %11, i64 0, i64 0
  %60 = load i32, i32* %8, align 4
  %61 = call i32 @max(i32* %59, i32 %60)
  %62 = add nsw i32 %61, 1
  store i32 %62, i32* %9, align 4
  %63 = load i32, i32* %9, align 4
  %64 = load i32, i32* %10, align 4
  %65 = icmp sgt i32 %63, %64
  br i1 %65, label %66, label %68

66:                                               ; preds = %58
  %67 = load i32, i32* %9, align 4
  store i32 %67, i32* %10, align 4
  br label %68

68:                                               ; preds = %66, %58
  br label %69

69:                                               ; preds = %68
  %70 = load i32, i32* %6, align 4
  %71 = add nsw i32 %70, 1
  store i32 %71, i32* %6, align 4
  br label %20

72:                                               ; preds = %20
  %73 = load i32, i32* %10, align 4
  store i32 %73, i32* %5, align 4
  br label %74

74:                                               ; preds = %72, %18
  br label %75

75:                                               ; preds = %74, %14
  %76 = load i32, i32* %5, align 4
  ret i32 %76
}

; Function Attrs: noinline nounwind uwtable
define dso_local i32 @main() #0 {
  %1 = alloca i32, align 4
  %2 = alloca i32, align 4
  %3 = alloca i32, align 4
  %4 = alloca i32, align 4
  %5 = alloca [25 x i32], align 16
  store i32 0, i32* %1, align 4
  %6 = call i32 (i8*, ...) @__isoc99_scanf(i8* getelementptr inbounds ([4 x i8], [4 x i8]* @.str, i64 0, i64 0), i32* %2)
  store i32 0, i32* %4, align 4
  br label %7

7:                                                ; preds = %16, %0
  %8 = load i32, i32* %4, align 4
  %9 = load i32, i32* %2, align 4
  %10 = icmp slt i32 %8, %9
  br i1 %10, label %11, label %19

11:                                               ; preds = %7
  %12 = load i32, i32* %4, align 4
  %13 = sext i32 %12 to i64
  %14 = getelementptr inbounds [25 x i32], [25 x i32]* %5, i64 0, i64 %13
  %15 = call i32 (i8*, ...) @__isoc99_scanf(i8* getelementptr inbounds ([3 x i8], [3 x i8]* @.str.1, i64 0, i64 0), i32* %14)
  br label %16

16:                                               ; preds = %11
  %17 = load i32, i32* %4, align 4
  %18 = add nsw i32 %17, 1
  store i32 %18, i32* %4, align 4
  br label %7

19:                                               ; preds = %7
  %20 = getelementptr inbounds [25 x i32], [25 x i32]* %5, i64 0, i64 0
  %21 = load i32, i32* %2, align 4
  %22 = call i32 @max(i32* %20, i32 %21)
  store i32 %22, i32* %3, align 4
  %23 = load i32, i32* %3, align 4
  %24 = call i32 (i8*, ...) @printf(i8* getelementptr inbounds ([4 x i8], [4 x i8]* @.str, i64 0, i64 0), i32 %23)
  %25 = load i32, i32* %1, align 4
  ret i32 %25
}

declare dso_local i32 @__isoc99_scanf(i8*, ...) #1

declare dso_local i32 @printf(i8*, ...) #1


!llvm.module.flags = !{!0}
!llvm.ident = !{!1}

!0 = !{i32 1, !"wchar_size", i32 4}
!1 = !{!"clang version 10.0.0-4ubuntu1 "}
